

Microchip MPLAB XC8 Assembler V2.35 build 20211206165544 
                                                                                               Wed May 18 00:20:31 2022

Microchip MPLAB XC8 C Compiler v2.35 (Free license) build 20211206165544 Og1 
     1                           	processor	16F887
     2                           	pagewidth 120
     3                           	opt	flic
     4                           	psect	cinit,global,class=CODE,merge=1,delta=2
     5                           	psect	bssCOMMON,global,class=COMMON,space=1,delta=1,noexec
     6                           	psect	cstackCOMMON,global,class=COMMON,space=1,delta=1,noexec
     7                           	psect	maintext,global,class=CODE,split=1,delta=2
     8                           	psect	text1,local,class=CODE,merge=1,delta=2
     9                           	psect	text2,local,class=CODE,merge=1,delta=2
    10                           	psect	intentry,global,class=CODE,delta=2
    11                           	psect	text3,local,class=CODE,merge=1,delta=2
    12                           	psect	text4,local,class=CODE,merge=1,delta=2
    13                           	psect	idloc,global,abs,ovrld,class=IDLOC,space=5,delta=2,noexec
    14                           	psect	config,global,abs,ovrld,class=CONFIG,space=4,delta=2,noexec
    15                           	dabs	1,0x7E,2
    16  0000                     
    17                           ; Version 2.40
    18                           ; Generated 17/11/2021 GMT
    19                           ; 
    20                           ; Copyright © 2021, Microchip Technology Inc. and its subsidiaries ("Microchip")
    21                           ; All rights reserved.
    22                           ; 
    23                           ; This software is developed by Microchip Technology Inc. and its subsidiaries ("Microch
      +                          ip").
    24                           ; 
    25                           ; Redistribution and use in source and binary forms, with or without modification, are
    26                           ; permitted provided that the following conditions are met:
    27                           ; 
    28                           ;     1. Redistributions of source code must retain the above copyright notice, this lis
      +                          t of
    29                           ;        conditions and the following disclaimer.
    30                           ; 
    31                           ;     2. Redistributions in binary form must reproduce the above copyright notice, this 
      +                          list
    32                           ;        of conditions and the following disclaimer in the documentation and/or other
    33                           ;        materials provided with the distribution. Publication is not required when
    34                           ;        this file is used in an embedded application.
    35                           ; 
    36                           ;     3. Microchip's name may not be used to endorse or promote products derived from th
      +                          is
    37                           ;        software without specific prior written permission.
    38                           ; 
    39                           ; THIS SOFTWARE IS PROVIDED BY MICROCHIP "AS IS" AND ANY EXPRESS OR IMPLIED WARRANTIES,
    40                           ; INCLUDING, BUT NOT LIMITED TO, THE IMPLIED WARRANTIES OF MERCHANTABILITY AND FITNESS F
      +                          OR
    41                           ; PURPOSE ARE DISCLAIMED.  IN NO EVENT SHALL MICROCHIP BE LIABLE FOR ANY DIRECT, INDIREC
      +                          T,
    42                           ; INCIDENTAL, SPECIAL, EXEMPLARY, OR CONSEQUENTIAL DAMAGES (INCLUDING BUT NOT LIMITED TO
    43                           ; PROCUREMENT OF SUBSTITUTE GOODS OR SERVICES; LOSS OF USE, DATA OR PROFITS; OR BUSINESS
    44                           ; INTERRUPTION) HOWSOEVER CAUSED AND ON ANY THEORY OF LIABILITY, WHETHER IN CONTRACT, ST
      +                          RICT
    45                           ; LIABILITY, OR TORT (INCLUDING NEGLIGENCE OR OTHERWISE) ARISING IN ANY WAY OUT OF THE U
      +                          SE OF
    46                           ; THIS SOFTWARE, EVEN IF ADVISED OF THE POSSIBILITY OF SUCH DAMAGE.
    47                           ; 
    48                           ; 
    49                           ; Code-generator required, PIC16F887 Definitions
    50                           ; 
    51                           ; SFR Addresses
    52  0000                     	;# 
    53  0001                     	;# 
    54  0002                     	;# 
    55  0003                     	;# 
    56  0004                     	;# 
    57  0005                     	;# 
    58  0006                     	;# 
    59  0007                     	;# 
    60  0008                     	;# 
    61  0009                     	;# 
    62  000A                     	;# 
    63  000B                     	;# 
    64  000C                     	;# 
    65  000D                     	;# 
    66  000E                     	;# 
    67  000E                     	;# 
    68  000F                     	;# 
    69  0010                     	;# 
    70  0011                     	;# 
    71  0012                     	;# 
    72  0013                     	;# 
    73  0014                     	;# 
    74  0015                     	;# 
    75  0015                     	;# 
    76  0016                     	;# 
    77  0017                     	;# 
    78  0018                     	;# 
    79  0019                     	;# 
    80  001A                     	;# 
    81  001B                     	;# 
    82  001B                     	;# 
    83  001C                     	;# 
    84  001D                     	;# 
    85  001E                     	;# 
    86  001F                     	;# 
    87  0081                     	;# 
    88  0085                     	;# 
    89  0086                     	;# 
    90  0087                     	;# 
    91  0088                     	;# 
    92  0089                     	;# 
    93  008C                     	;# 
    94  008D                     	;# 
    95  008E                     	;# 
    96  008F                     	;# 
    97  0090                     	;# 
    98  0091                     	;# 
    99  0092                     	;# 
   100  0093                     	;# 
   101  0093                     	;# 
   102  0093                     	;# 
   103  0094                     	;# 
   104  0095                     	;# 
   105  0096                     	;# 
   106  0097                     	;# 
   107  0098                     	;# 
   108  0099                     	;# 
   109  009A                     	;# 
   110  009B                     	;# 
   111  009C                     	;# 
   112  009D                     	;# 
   113  009E                     	;# 
   114  009F                     	;# 
   115  0105                     	;# 
   116  0107                     	;# 
   117  0108                     	;# 
   118  0109                     	;# 
   119  010C                     	;# 
   120  010C                     	;# 
   121  010D                     	;# 
   122  010E                     	;# 
   123  010F                     	;# 
   124  0185                     	;# 
   125  0187                     	;# 
   126  0188                     	;# 
   127  0189                     	;# 
   128  018C                     	;# 
   129  018D                     	;# 
   130  0000                     	;# 
   131  0001                     	;# 
   132  0002                     	;# 
   133  0003                     	;# 
   134  0004                     	;# 
   135  0005                     	;# 
   136  0006                     	;# 
   137  0007                     	;# 
   138  0008                     	;# 
   139  0009                     	;# 
   140  000A                     	;# 
   141  000B                     	;# 
   142  000C                     	;# 
   143  000D                     	;# 
   144  000E                     	;# 
   145  000E                     	;# 
   146  000F                     	;# 
   147  0010                     	;# 
   148  0011                     	;# 
   149  0012                     	;# 
   150  0013                     	;# 
   151  0014                     	;# 
   152  0015                     	;# 
   153  0015                     	;# 
   154  0016                     	;# 
   155  0017                     	;# 
   156  0018                     	;# 
   157  0019                     	;# 
   158  001A                     	;# 
   159  001B                     	;# 
   160  001B                     	;# 
   161  001C                     	;# 
   162  001D                     	;# 
   163  001E                     	;# 
   164  001F                     	;# 
   165  0081                     	;# 
   166  0085                     	;# 
   167  0086                     	;# 
   168  0087                     	;# 
   169  0088                     	;# 
   170  0089                     	;# 
   171  008C                     	;# 
   172  008D                     	;# 
   173  008E                     	;# 
   174  008F                     	;# 
   175  0090                     	;# 
   176  0091                     	;# 
   177  0092                     	;# 
   178  0093                     	;# 
   179  0093                     	;# 
   180  0093                     	;# 
   181  0094                     	;# 
   182  0095                     	;# 
   183  0096                     	;# 
   184  0097                     	;# 
   185  0098                     	;# 
   186  0099                     	;# 
   187  009A                     	;# 
   188  009B                     	;# 
   189  009C                     	;# 
   190  009D                     	;# 
   191  009E                     	;# 
   192  009F                     	;# 
   193  0105                     	;# 
   194  0107                     	;# 
   195  0108                     	;# 
   196  0109                     	;# 
   197  010C                     	;# 
   198  010C                     	;# 
   199  010D                     	;# 
   200  010E                     	;# 
   201  010F                     	;# 
   202  0185                     	;# 
   203  0187                     	;# 
   204  0188                     	;# 
   205  0189                     	;# 
   206  018C                     	;# 
   207  018D                     	;# 
   208  0006                     _PORTB	set	6
   209  0005                     _PORTA	set	5
   210  0007                     _PORTC	set	7
   211  001F                     _ADCON0bits	set	31
   212  000C                     _PIR1bits	set	12
   213  001E                     _ADRESH	set	30
   214  0008                     _PORTD	set	8
   215  0005                     _PORTAbits	set	5
   216  0006                     _PORTBbits	set	6
   217  000B                     _INTCONbits	set	11
   218  0096                     _IOCBbits	set	150
   219  008C                     _PIE1bits	set	140
   220  009F                     _ADCON1bits	set	159
   221  0095                     _WPUBbits	set	149
   222  0081                     _OPTION_REGbits	set	129
   223  0088                     _TRISD	set	136
   224  0087                     _TRISC	set	135
   225  0086                     _TRISBbits	set	134
   226  0085                     _TRISA	set	133
   227  008F                     _OSCCONbits	set	143
   228  010C                     _EEDAT	set	268
   229  010D                     _EEADR	set	269
   230  018D                     _EECON2	set	397
   231  018C                     _EECON1bits	set	396
   232  0189                     _ANSELH	set	393
   233  0188                     _ANSEL	set	392
   234                           
   235                           	psect	cinit
   236  000F                     start_initialization:	
   237                           ; #config settings
   238                           
   239  000F                     __initialization:
   240                           
   241                           ; Clear objects allocated to COMMON
   242  000F  01F6               	clrf	__pbssCOMMON& (0+127)
   243  0010  01F7               	clrf	(__pbssCOMMON+1)& (0+127)
   244  0011                     end_of_initialization:	
   245                           ;End of C runtime variable initialization code
   246                           
   247  0011                     __end_of__initialization:
   248  0011  0183               	clrf	3
   249  0012  120A  118A  28B4   	ljmp	_main	;jump to C main() function
   250                           
   251                           	psect	bssCOMMON
   252  0076                     __pbssCOMMON:
   253  0076                     _bandera_off:
   254  0076                     	ds	2
   255                           
   256                           	psect	cstackCOMMON
   257  0070                     __pcstackCOMMON:
   258  0070                     ?_read_EEPROM:
   259  0070                     ??_read_EEPROM:	
   260                           ; 1 bytes @ 0x0
   261                           
   262  0070                     ?_write_EEPROM:	
   263                           ; 1 bytes @ 0x0
   264                           
   265  0070                     ?_setup:	
   266                           ; 1 bytes @ 0x0
   267                           
   268  0070                     ?_isr:	
   269                           ; 1 bytes @ 0x0
   270                           
   271  0070                     ?_main:	
   272                           ; 1 bytes @ 0x0
   273                           
   274  0070                     read_EEPROM@address:	
   275                           ; 1 bytes @ 0x0
   276                           
   277  0070                     write_EEPROM@data:	
   278                           ; 1 bytes @ 0x0
   279                           
   280                           
   281                           ; 1 bytes @ 0x0
   282  0070                     	ds	1
   283  0071                     ??_write_EEPROM:
   284  0071                     write_EEPROM@address:	
   285                           ; 1 bytes @ 0x1
   286                           
   287                           
   288                           ; 1 bytes @ 0x1
   289  0071                     	ds	1
   290  0072                     ??_isr:
   291                           
   292                           ; 1 bytes @ 0x2
   293  0072                     	ds	3
   294  0075                     ??_setup:
   295                           
   296                           ; 1 bytes @ 0x5
   297  0075                     	ds	1
   298  0076                     ??_main:
   299                           
   300                           	psect	maintext
   301  00B4                     __pmaintext:	
   302                           ; 1 bytes @ 0x6
   303 ;;
   304 ;;Main: autosize = 0, tempsize = 0, incstack = 0, save=0
   305 ;;
   306 ;; *************** function _main *****************
   307 ;; Defined at:
   308 ;;		line 82 in file "main_Lab.c"
   309 ;; Parameters:    Size  Location     Type
   310 ;;		None
   311 ;; Auto vars:     Size  Location     Type
   312 ;;		None
   313 ;; Return value:  Size  Location     Type
   314 ;;                  1    wreg      void 
   315 ;; Registers used:
   316 ;;		wreg, status,2, status,0, pclath, cstack
   317 ;; Tracked objects:
   318 ;;		On entry : B00/0
   319 ;;		On exit  : 0/0
   320 ;;		Unchanged: 0/0
   321 ;; Data sizes:     COMMON   BANK0   BANK1   BANK3   BANK2
   322 ;;      Params:         0       0       0       0       0
   323 ;;      Locals:         0       0       0       0       0
   324 ;;      Temps:          0       0       0       0       0
   325 ;;      Totals:         0       0       0       0       0
   326 ;;Total ram usage:        0 bytes
   327 ;; Hardware stack levels required when called: 3
   328 ;; This function calls:
   329 ;;		_setup
   330 ;; This function is called by:
   331 ;;		Startup code after reset
   332 ;; This function uses a non-reentrant model
   333 ;;
   334                           
   335  00B4                     _main:	
   336                           ;psect for function _main
   337                           
   338  00B4                     l804:	
   339                           ;incstack = 0
   340                           ; Regs used in _main: [wreg+status,2+status,0+pclath+cstack]
   341                           
   342                           
   343                           ;main_Lab.c: 84:     setup();
   344  00B4  120A  118A  2065  120A  118A  	fcall	_setup
   345  00B9                     l806:
   346                           
   347                           ;main_Lab.c: 87:     {;main_Lab.c: 88:         if(!bandera_off){
   348  00B9  0876               	movf	_bandera_off,w
   349  00BA  0477               	iorwf	_bandera_off+1,w
   350  00BB  1D03               	btfss	3,2
   351  00BC  28BE               	goto	u81
   352  00BD  28BF               	goto	u80
   353  00BE                     u81:
   354  00BE  28B9               	goto	l806
   355  00BF                     u80:
   356  00BF                     l808:
   357                           
   358                           ;main_Lab.c: 89:             if(ADCON0bits.GO == 0){
   359  00BF  1283               	bcf	3,5	;RP0=0, select bank0
   360  00C0  1303               	bcf	3,6	;RP1=0, select bank0
   361  00C1  189F               	btfsc	31,1	;volatile
   362  00C2  28C4               	goto	u91
   363  00C3  28C5               	goto	u90
   364  00C4                     u91:
   365  00C4  28B9               	goto	l806
   366  00C5                     u90:
   367  00C5                     l810:
   368                           
   369                           ;main_Lab.c: 90:             ADCON0bits.GO = 1;
   370  00C5  149F               	bsf	31,1	;volatile
   371  00C6  28B9               	goto	l806
   372  00C7  120A  118A  280C   	ljmp	start
   373  00CA                     __end_of_main:
   374                           
   375                           	psect	text1
   376  0065                     __ptext1:	
   377 ;; *************** function _setup *****************
   378 ;; Defined at:
   379 ;;		line 96 in file "main_Lab.c"
   380 ;; Parameters:    Size  Location     Type
   381 ;;		None
   382 ;; Auto vars:     Size  Location     Type
   383 ;;		None
   384 ;; Return value:  Size  Location     Type
   385 ;;                  1    wreg      void 
   386 ;; Registers used:
   387 ;;		wreg, status,2, status,0
   388 ;; Tracked objects:
   389 ;;		On entry : 0/0
   390 ;;		On exit  : 0/0
   391 ;;		Unchanged: 0/0
   392 ;; Data sizes:     COMMON   BANK0   BANK1   BANK3   BANK2
   393 ;;      Params:         0       0       0       0       0
   394 ;;      Locals:         0       0       0       0       0
   395 ;;      Temps:          1       0       0       0       0
   396 ;;      Totals:         1       0       0       0       0
   397 ;;Total ram usage:        1 bytes
   398 ;; Hardware stack levels used: 1
   399 ;; Hardware stack levels required when called: 2
   400 ;; This function calls:
   401 ;;		Nothing
   402 ;; This function is called by:
   403 ;;		_main
   404 ;; This function uses a non-reentrant model
   405 ;;
   406                           
   407  0065                     _setup:	
   408                           ;psect for function _setup
   409                           
   410  0065                     l710:	
   411                           ;incstack = 0
   412                           ; Regs used in _setup: [wreg+status,2+status,0]
   413                           
   414                           
   415                           ;main_Lab.c: 97:     ANSEL = 0x01;
   416  0065  3001               	movlw	1
   417  0066  1683               	bsf	3,5	;RP0=1, select bank3
   418  0067  1703               	bsf	3,6	;RP1=1, select bank3
   419  0068  0088               	movwf	8	;volatile
   420  0069                     l712:
   421                           
   422                           ;main_Lab.c: 98:     ANSELH = 0;
   423  0069  0189               	clrf	9	;volatile
   424  006A                     l714:
   425                           
   426                           ;main_Lab.c: 100:     OSCCONbits.IRCF = 0b0110;
   427  006A  1683               	bsf	3,5	;RP0=1, select bank1
   428  006B  1303               	bcf	3,6	;RP1=0, select bank1
   429  006C  080F               	movf	15,w	;volatile
   430  006D  398F               	andlw	-113
   431  006E  3860               	iorlw	96
   432  006F  008F               	movwf	15	;volatile
   433  0070                     l716:
   434                           
   435                           ;main_Lab.c: 101:     OSCCONbits.SCS = 1;
   436  0070  140F               	bsf	15,0	;volatile
   437  0071                     l718:
   438                           
   439                           ;main_Lab.c: 103:     TRISA = 0x01;
   440  0071  3001               	movlw	1
   441  0072  0085               	movwf	5	;volatile
   442  0073                     l720:
   443                           
   444                           ;main_Lab.c: 104:     PORTA = 0;
   445  0073  1283               	bcf	3,5	;RP0=0, select bank0
   446  0074  1303               	bcf	3,6	;RP1=0, select bank0
   447  0075  0185               	clrf	5	;volatile
   448  0076                     l722:
   449                           
   450                           ;main_Lab.c: 106:     TRISBbits.TRISB0 = 1;
   451  0076  1683               	bsf	3,5	;RP0=1, select bank1
   452  0077  1303               	bcf	3,6	;RP1=0, select bank1
   453  0078  1406               	bsf	6,0	;volatile
   454  0079                     l724:
   455                           
   456                           ;main_Lab.c: 107:     TRISBbits.TRISB1 = 1;
   457  0079  1486               	bsf	6,1	;volatile
   458  007A                     l726:
   459                           
   460                           ;main_Lab.c: 108:     PORTB = 0;
   461  007A  1283               	bcf	3,5	;RP0=0, select bank0
   462  007B  1303               	bcf	3,6	;RP1=0, select bank0
   463  007C  0186               	clrf	6	;volatile
   464  007D                     l728:
   465                           
   466                           ;main_Lab.c: 110:     TRISC = 0;
   467  007D  1683               	bsf	3,5	;RP0=1, select bank1
   468  007E  1303               	bcf	3,6	;RP1=0, select bank1
   469  007F  0187               	clrf	7	;volatile
   470  0080                     l730:
   471                           
   472                           ;main_Lab.c: 111:     PORTC = 0;
   473  0080  1283               	bcf	3,5	;RP0=0, select bank0
   474  0081  1303               	bcf	3,6	;RP1=0, select bank0
   475  0082  0187               	clrf	7	;volatile
   476  0083                     l732:
   477                           
   478                           ;main_Lab.c: 112:     TRISD = 0;
   479  0083  1683               	bsf	3,5	;RP0=1, select bank1
   480  0084  1303               	bcf	3,6	;RP1=0, select bank1
   481  0085  0188               	clrf	8	;volatile
   482  0086                     l734:
   483                           
   484                           ;main_Lab.c: 113:     PORTD = 0;
   485  0086  1283               	bcf	3,5	;RP0=0, select bank0
   486  0087  1303               	bcf	3,6	;RP1=0, select bank0
   487  0088  0188               	clrf	8	;volatile
   488  0089                     l736:
   489                           
   490                           ;main_Lab.c: 116:     OPTION_REGbits.nRBPU = 0;
   491  0089  1683               	bsf	3,5	;RP0=1, select bank1
   492  008A  1303               	bcf	3,6	;RP1=0, select bank1
   493  008B  1381               	bcf	1,7	;volatile
   494  008C                     l738:
   495                           
   496                           ;main_Lab.c: 117:     WPUBbits.WPUB0 = 1;
   497  008C  1415               	bsf	21,0	;volatile
   498  008D                     l740:
   499                           
   500                           ;main_Lab.c: 118:     WPUBbits.WPUB1 = 1;
   501  008D  1495               	bsf	21,1	;volatile
   502  008E                     l742:
   503                           
   504                           ;main_Lab.c: 119:     WPUBbits.WPUB2 = 1;
   505  008E  1515               	bsf	21,2	;volatile
   506  008F                     l744:
   507                           
   508                           ;main_Lab.c: 123:     ADCON0bits.ADCS = 0b11;
   509  008F  30C0               	movlw	192
   510  0090  1283               	bcf	3,5	;RP0=0, select bank0
   511  0091  1303               	bcf	3,6	;RP1=0, select bank0
   512  0092  049F               	iorwf	31,f	;volatile
   513  0093                     l746:
   514                           
   515                           ;main_Lab.c: 124:     ADCON1bits.VCFG0 = 0;
   516  0093  1683               	bsf	3,5	;RP0=1, select bank1
   517  0094  1303               	bcf	3,6	;RP1=0, select bank1
   518  0095  121F               	bcf	31,4	;volatile
   519  0096                     l748:
   520                           
   521                           ;main_Lab.c: 125:     ADCON1bits.VCFG1 = 0;
   522  0096  129F               	bcf	31,5	;volatile
   523  0097                     l750:
   524                           
   525                           ;main_Lab.c: 126:     ADCON0bits.CHS = 0b0000;
   526  0097  30C3               	movlw	-61
   527  0098  1283               	bcf	3,5	;RP0=0, select bank0
   528  0099  1303               	bcf	3,6	;RP1=0, select bank0
   529  009A  059F               	andwf	31,f	;volatile
   530  009B                     l752:
   531                           
   532                           ;main_Lab.c: 127:     ADCON1bits.ADFM = 0;
   533  009B  1683               	bsf	3,5	;RP0=1, select bank1
   534  009C  1303               	bcf	3,6	;RP1=0, select bank1
   535  009D  139F               	bcf	31,7	;volatile
   536  009E                     l754:
   537                           
   538                           ;main_Lab.c: 128:     ADCON0bits.ADON = 1;
   539  009E  1283               	bcf	3,5	;RP0=0, select bank0
   540  009F  1303               	bcf	3,6	;RP1=0, select bank0
   541  00A0  141F               	bsf	31,0	;volatile
   542  00A1                     l756:
   543                           
   544                           ;main_Lab.c: 129:     _delay((unsigned long)((40)*(4000000/4000000.0)));
   545  00A1  300D               	movlw	13
   546  00A2  00F5               	movwf	??_setup
   547  00A3                     u177:
   548  00A3  0BF5               	decfsz	??_setup,f
   549  00A4  28A3               	goto	u177
   550  00A5                     l758:
   551                           
   552                           ;main_Lab.c: 132:     INTCONbits.GIE = 1;
   553  00A5  178B               	bsf	11,7	;volatile
   554  00A6                     l760:
   555                           
   556                           ;main_Lab.c: 133:     PIE1bits.ADIE = 1;
   557  00A6  1683               	bsf	3,5	;RP0=1, select bank1
   558  00A7  1303               	bcf	3,6	;RP1=0, select bank1
   559  00A8  170C               	bsf	12,6	;volatile
   560  00A9                     l762:
   561                           
   562                           ;main_Lab.c: 134:     PIR1bits.ADIF = 0;
   563  00A9  1283               	bcf	3,5	;RP0=0, select bank0
   564  00AA  1303               	bcf	3,6	;RP1=0, select bank0
   565  00AB  130C               	bcf	12,6	;volatile
   566  00AC                     l764:
   567                           
   568                           ;main_Lab.c: 135:     INTCONbits.RBIE = 1;
   569  00AC  158B               	bsf	11,3	;volatile
   570  00AD                     l766:
   571                           
   572                           ;main_Lab.c: 136:     IOCBbits.IOCB0 = 1;
   573  00AD  1683               	bsf	3,5	;RP0=1, select bank1
   574  00AE  1303               	bcf	3,6	;RP1=0, select bank1
   575  00AF  1416               	bsf	22,0	;volatile
   576  00B0                     l768:
   577                           
   578                           ;main_Lab.c: 137:     IOCBbits.IOCB1 = 1;
   579  00B0  1496               	bsf	22,1	;volatile
   580  00B1                     l770:
   581                           
   582                           ;main_Lab.c: 138:     IOCBbits.IOCB2 = 1;
   583  00B1  1516               	bsf	22,2	;volatile
   584  00B2                     l772:
   585                           
   586                           ;main_Lab.c: 139:     INTCONbits.PEIE = 1;
   587  00B2  170B               	bsf	11,6	;volatile
   588  00B3                     l88:
   589  00B3  0008               	return
   590  00B4                     __end_of_setup:
   591                           
   592                           	psect	text2
   593  0015                     __ptext2:	
   594 ;; *************** function _isr *****************
   595 ;; Defined at:
   596 ;;		line 55 in file "main_Lab.c"
   597 ;; Parameters:    Size  Location     Type
   598 ;;		None
   599 ;; Auto vars:     Size  Location     Type
   600 ;;		None
   601 ;; Return value:  Size  Location     Type
   602 ;;                  1    wreg      void 
   603 ;; Registers used:
   604 ;;		wreg, status,2, status,0, pclath, cstack
   605 ;; Tracked objects:
   606 ;;		On entry : 0/0
   607 ;;		On exit  : 0/0
   608 ;;		Unchanged: 0/0
   609 ;; Data sizes:     COMMON   BANK0   BANK1   BANK3   BANK2
   610 ;;      Params:         0       0       0       0       0
   611 ;;      Locals:         0       0       0       0       0
   612 ;;      Temps:          3       0       0       0       0
   613 ;;      Totals:         3       0       0       0       0
   614 ;;Total ram usage:        3 bytes
   615 ;; Hardware stack levels used: 1
   616 ;; Hardware stack levels required when called: 1
   617 ;; This function calls:
   618 ;;		_read_EEPROM
   619 ;;		_write_EEPROM
   620 ;; This function is called by:
   621 ;;		Interrupt level 1
   622 ;; This function uses a non-reentrant model
   623 ;;
   624                           
   625  0015                     _isr:	
   626                           ;psect for function _isr
   627                           
   628  0015                     i1l828:
   629                           
   630                           ;main_Lab.c: 57:     if (INTCONbits.RBIF){
   631  0015  1C0B               	btfss	11,0	;volatile
   632  0016  2818               	goto	u10_21
   633  0017  2819               	goto	u10_20
   634  0018                     u10_21:
   635  0018  284C               	goto	i1l848
   636  0019                     u10_20:
   637  0019                     i1l830:
   638                           
   639                           ;main_Lab.c: 58:         if (!PORTBbits.RB0){
   640  0019  1283               	bcf	3,5	;RP0=0, select bank0
   641  001A  1303               	bcf	3,6	;RP1=0, select bank0
   642  001B  1806               	btfsc	6,0	;volatile
   643  001C  281E               	goto	u11_21
   644  001D  281F               	goto	u11_20
   645  001E                     u11_21:
   646  001E  2826               	goto	i1l68
   647  001F                     u11_20:
   648  001F                     i1l832:
   649                           
   650                           ;main_Lab.c: 59:             bandera_off = 1;
   651  001F  3001               	movlw	1
   652  0020  00F6               	movwf	_bandera_off
   653  0021  3000               	movlw	0
   654  0022  00F7               	movwf	_bandera_off+1
   655  0023                     i1l834:
   656                           
   657                           ;main_Lab.c: 60:             PORTAbits.RA1 = 1;
   658  0023  1485               	bsf	5,1	;volatile
   659  0024  0063               	sleep	;# 
   660                           
   661                           ;main_Lab.c: 62:         } else if (PORTBbits.RB1 == 0 && bandera_off == 1){
   662  0025  284B               	goto	i1l846
   663  0026                     i1l68:
   664  0026  1886               	btfsc	6,1	;volatile
   665  0027  2829               	goto	u12_21
   666  0028  282A               	goto	u12_20
   667  0029                     u12_21:
   668  0029  283D               	goto	i1l70
   669  002A                     u12_20:
   670  002A                     i1l836:
   671  002A  0376               	decf	_bandera_off,w
   672  002B  0477               	iorwf	_bandera_off+1,w
   673  002C  1D03               	btfss	3,2
   674  002D  282F               	goto	u13_21
   675  002E  2830               	goto	u13_20
   676  002F                     u13_21:
   677  002F  283D               	goto	i1l70
   678  0030                     u13_20:
   679  0030                     i1l838:
   680                           
   681                           ;main_Lab.c: 63:             bandera_off = 0;
   682  0030  01F6               	clrf	_bandera_off
   683  0031  01F7               	clrf	_bandera_off+1
   684  0032                     i1l840:
   685                           
   686                           ;main_Lab.c: 64:             PORTAbits.RA1 = 0;
   687  0032  1085               	bcf	5,1	;volatile
   688  0033                     i1l842:
   689                           
   690                           ;main_Lab.c: 65:             PORTD = read_EEPROM(0);
   691  0033  3000               	movlw	0
   692  0034  120A  118A  20DF  120A  118A  	fcall	_read_EEPROM
   693  0039  1283               	bcf	3,5	;RP0=0, select bank0
   694  003A  1303               	bcf	3,6	;RP1=0, select bank0
   695  003B  0088               	movwf	8	;volatile
   696                           
   697                           ;main_Lab.c: 66:         }
   698  003C  284B               	goto	i1l846
   699  003D                     i1l70:	
   700                           ;main_Lab.c: 67:         else if (!PORTBbits.RB2){
   701                           
   702  003D  1906               	btfsc	6,2	;volatile
   703  003E  2840               	goto	u14_21
   704  003F  2841               	goto	u14_20
   705  0040                     u14_21:
   706  0040  284B               	goto	i1l846
   707  0041                     u14_20:
   708  0041                     i1l844:
   709                           
   710                           ;main_Lab.c: 68:             write_EEPROM(0, ADRESH);
   711  0041  081E               	movf	30,w	;volatile
   712  0042  00F2               	movwf	??_isr
   713  0043  0872               	movf	??_isr,w
   714  0044  00F0               	movwf	write_EEPROM@data
   715  0045  3000               	movlw	0
   716  0046  120A  118A  20CA  120A  118A  	fcall	_write_EEPROM
   717  004B                     i1l846:
   718                           
   719                           ;main_Lab.c: 70:         INTCONbits.RBIF = 0;
   720  004B  100B               	bcf	11,0	;volatile
   721  004C                     i1l848:
   722                           
   723                           ;main_Lab.c: 73:     if (PIR1bits.ADIF){
   724  004C  1283               	bcf	3,5	;RP0=0, select bank0
   725  004D  1303               	bcf	3,6	;RP1=0, select bank0
   726  004E  1F0C               	btfss	12,6	;volatile
   727  004F  2851               	goto	u15_21
   728  0050  2852               	goto	u15_20
   729  0051                     u15_21:
   730  0051  285E               	goto	i1l75
   731  0052                     u15_20:
   732  0052                     i1l850:
   733                           
   734                           ;main_Lab.c: 74:         if (ADCON0bits.CHS == 0){
   735  0052  0C1F               	rrf	31,w	;volatile
   736  0053  00F2               	movwf	??_isr
   737  0054  0C72               	rrf	??_isr,w
   738  0055  390F               	andlw	15
   739  0056  3A00               	xorlw	0
   740  0057  1D03               	skipz
   741  0058  285A               	goto	u16_21
   742  0059  285B               	goto	u16_20
   743  005A                     u16_21:
   744  005A  285D               	goto	i1l854
   745  005B                     u16_20:
   746  005B                     i1l852:
   747                           
   748                           ;main_Lab.c: 75:             PORTC = ADRESH;
   749  005B  081E               	movf	30,w	;volatile
   750  005C  0087               	movwf	7	;volatile
   751  005D                     i1l854:
   752                           
   753                           ;main_Lab.c: 77:         PIR1bits.ADIF = 0;
   754  005D  130C               	bcf	12,6	;volatile
   755  005E                     i1l75:
   756  005E  0874               	movf	??_isr+2,w
   757  005F  008A               	movwf	10
   758  0060  0E73               	swapf	??_isr+1,w
   759  0061  0083               	movwf	3
   760  0062  0EFE               	swapf	btemp,f
   761  0063  0E7E               	swapf	btemp,w
   762  0064  0009               	retfie
   763  0065                     __end_of_isr:
   764                           
   765                           	psect	intentry
   766  0004                     __pintentry:	
   767                           ;incstack = 0
   768                           ; Regs used in _isr: [wreg+status,2+status,0+pclath+cstack]
   769                           
   770  0004                     interrupt_function:
   771  007E                     saved_w	set	btemp
   772  0004  00FE               	movwf	btemp
   773  0005  0E03               	swapf	3,w
   774  0006  00F3               	movwf	??_isr+1
   775  0007  080A               	movf	10,w
   776  0008  00F4               	movwf	??_isr+2
   777  0009  120A  118A  2815   	ljmp	_isr
   778                           
   779                           	psect	text3
   780  00CA                     __ptext3:	
   781 ;; *************** function _write_EEPROM *****************
   782 ;; Defined at:
   783 ;;		line 148 in file "main_Lab.c"
   784 ;; Parameters:    Size  Location     Type
   785 ;;  address         1    wreg     unsigned char 
   786 ;;  data            1    0[COMMON] unsigned char 
   787 ;; Auto vars:     Size  Location     Type
   788 ;;  address         1    1[COMMON] unsigned char 
   789 ;; Return value:  Size  Location     Type
   790 ;;                  1    wreg      void 
   791 ;; Registers used:
   792 ;;		wreg
   793 ;; Tracked objects:
   794 ;;		On entry : 0/0
   795 ;;		On exit  : 0/0
   796 ;;		Unchanged: 0/0
   797 ;; Data sizes:     COMMON   BANK0   BANK1   BANK3   BANK2
   798 ;;      Params:         1       0       0       0       0
   799 ;;      Locals:         1       0       0       0       0
   800 ;;      Temps:          0       0       0       0       0
   801 ;;      Totals:         2       0       0       0       0
   802 ;;Total ram usage:        2 bytes
   803 ;; Hardware stack levels used: 1
   804 ;; This function calls:
   805 ;;		Nothing
   806 ;; This function is called by:
   807 ;;		_isr
   808 ;; This function uses a non-reentrant model
   809 ;;
   810                           
   811  00CA                     _write_EEPROM:	
   812                           ;psect for function _write_EEPROM
   813                           
   814                           
   815                           ;incstack = 0
   816                           ; Regs used in _write_EEPROM: [wreg]
   817                           ;write_EEPROM@address stored from wreg
   818  00CA  00F1               	movwf	write_EEPROM@address
   819  00CB                     i1l812:
   820                           
   821                           ;main_Lab.c: 149:     EEADR = address;
   822  00CB  0871               	movf	write_EEPROM@address,w
   823  00CC  1283               	bcf	3,5	;RP0=0, select bank2
   824  00CD  1703               	bsf	3,6	;RP1=1, select bank2
   825  00CE  008D               	movwf	13	;volatile
   826                           
   827                           ;main_Lab.c: 150:     EEDAT = data;
   828  00CF  0870               	movf	write_EEPROM@data,w
   829  00D0  008C               	movwf	12	;volatile
   830  00D1                     i1l814:
   831                           
   832                           ;main_Lab.c: 151:     EECON1bits.EEPGD = 0;
   833  00D1  1683               	bsf	3,5	;RP0=1, select bank3
   834  00D2  1703               	bsf	3,6	;RP1=1, select bank3
   835  00D3  138C               	bcf	12,7	;volsfr
   836  00D4                     i1l816:
   837                           
   838                           ;main_Lab.c: 152:     EECON1bits.WREN = 1;
   839  00D4  150C               	bsf	12,2	;volsfr
   840  00D5                     i1l818:
   841                           
   842                           ;main_Lab.c: 154:     INTCONbits.GIE = 0;
   843  00D5  138B               	bcf	11,7	;volatile
   844                           
   845                           ;main_Lab.c: 156:     EECON2 = 0x55;
   846  00D6  3055               	movlw	85
   847  00D7  008D               	movwf	13	;volsfr
   848                           
   849                           ;main_Lab.c: 157:     EECON2 = 0xAA;
   850  00D8  30AA               	movlw	170
   851  00D9  008D               	movwf	13	;volsfr
   852  00DA                     i1l820:
   853                           
   854                           ;main_Lab.c: 159:     EECON1bits.WR = 1;
   855  00DA  148C               	bsf	12,1	;volsfr
   856  00DB                     i1l822:
   857                           
   858                           ;main_Lab.c: 161:     EECON1bits.WREN = 0;
   859  00DB  110C               	bcf	12,2	;volsfr
   860  00DC                     i1l824:
   861                           
   862                           ;main_Lab.c: 162:     INTCONbits.RBIF = 0;
   863  00DC  100B               	bcf	11,0	;volatile
   864  00DD                     i1l826:
   865                           
   866                           ;main_Lab.c: 163:     INTCONbits.GIE = 1;
   867  00DD  178B               	bsf	11,7	;volatile
   868  00DE                     i1l94:
   869  00DE  0008               	return
   870  00DF                     __end_of_write_EEPROM:
   871                           
   872                           	psect	text4
   873  00DF                     __ptext4:	
   874 ;; *************** function _read_EEPROM *****************
   875 ;; Defined at:
   876 ;;		line 142 in file "main_Lab.c"
   877 ;; Parameters:    Size  Location     Type
   878 ;;  address         1    wreg     unsigned char 
   879 ;; Auto vars:     Size  Location     Type
   880 ;;  address         1    0[COMMON] unsigned char 
   881 ;; Return value:  Size  Location     Type
   882 ;;                  1    wreg      unsigned char 
   883 ;; Registers used:
   884 ;;		wreg
   885 ;; Tracked objects:
   886 ;;		On entry : 0/0
   887 ;;		On exit  : 0/0
   888 ;;		Unchanged: 0/0
   889 ;; Data sizes:     COMMON   BANK0   BANK1   BANK3   BANK2
   890 ;;      Params:         0       0       0       0       0
   891 ;;      Locals:         1       0       0       0       0
   892 ;;      Temps:          0       0       0       0       0
   893 ;;      Totals:         1       0       0       0       0
   894 ;;Total ram usage:        1 bytes
   895 ;; Hardware stack levels used: 1
   896 ;; This function calls:
   897 ;;		Nothing
   898 ;; This function is called by:
   899 ;;		_isr
   900 ;; This function uses a non-reentrant model
   901 ;;
   902                           
   903  00DF                     _read_EEPROM:	
   904                           ;psect for function _read_EEPROM
   905                           
   906                           
   907                           ;incstack = 0
   908                           ; Regs used in _read_EEPROM: [wreg]
   909                           ;read_EEPROM@address stored from wreg
   910  00DF  00F0               	movwf	read_EEPROM@address
   911  00E0                     i1l686:
   912                           
   913                           ;main_Lab.c: 143:     EEADR = address;
   914  00E0  0870               	movf	read_EEPROM@address,w
   915  00E1  1283               	bcf	3,5	;RP0=0, select bank2
   916  00E2  1703               	bsf	3,6	;RP1=1, select bank2
   917  00E3  008D               	movwf	13	;volatile
   918  00E4                     i1l688:
   919                           
   920                           ;main_Lab.c: 144:     EECON1bits.EEPGD = 0;
   921  00E4  1683               	bsf	3,5	;RP0=1, select bank3
   922  00E5  1703               	bsf	3,6	;RP1=1, select bank3
   923  00E6  138C               	bcf	12,7	;volsfr
   924  00E7                     i1l690:
   925                           
   926                           ;main_Lab.c: 145:     EECON1bits.RD = 1;
   927  00E7  140C               	bsf	12,0	;volsfr
   928                           
   929                           ;main_Lab.c: 146:     return EEDAT;
   930  00E8  1283               	bcf	3,5	;RP0=0, select bank2
   931  00E9  1703               	bsf	3,6	;RP1=1, select bank2
   932  00EA  080C               	movf	12,w	;volatile
   933  00EB                     i1l91:
   934  00EB  0008               	return
   935  00EC                     __end_of_read_EEPROM:
   936  007E                     btemp	set	126	;btemp
   937  007E                     wtemp0	set	126
   938                           
   939                           	psect	idloc
   940                           
   941                           ;Config register IDLOC0 @ 0x2000
   942                           ;	unspecified, using default values
   943  2000                     	org	8192
   944  2000  3FFF               	dw	16383
   945                           
   946                           ;Config register IDLOC1 @ 0x2001
   947                           ;	unspecified, using default values
   948  2001                     	org	8193
   949  2001  3FFF               	dw	16383
   950                           
   951                           ;Config register IDLOC2 @ 0x2002
   952                           ;	unspecified, using default values
   953  2002                     	org	8194
   954  2002  3FFF               	dw	16383
   955                           
   956                           ;Config register IDLOC3 @ 0x2003
   957                           ;	unspecified, using default values
   958  2003                     	org	8195
   959  2003  3FFF               	dw	16383
   960                           
   961                           	psect	config
   962                           
   963                           ;Config register CONFIG1 @ 0x2007
   964                           ;	Oscillator Selection bits
   965                           ;	FOSC = INTRC_NOCLKOUT, INTOSCIO oscillator: I/O function on RA6/OSC2/CLKOUT pin, I/O f
      +                          unction on RA7/OSC1/CLKIN
   966                           ;	Watchdog Timer Enable bit
   967                           ;	WDTE = OFF, WDT disabled and can be enabled by SWDTEN bit of the WDTCON register
   968                           ;	Power-up Timer Enable bit
   969                           ;	PWRTE = OFF, PWRT disabled
   970                           ;	RE3/MCLR pin function select bit
   971                           ;	MCLRE = OFF, RE3/MCLR pin function is digital input, MCLR internally tied to VDD
   972                           ;	Code Protection bit
   973                           ;	CP = OFF, Program memory code protection is disabled
   974                           ;	Data Code Protection bit
   975                           ;	CPD = OFF, Data memory code protection is disabled
   976                           ;	Brown Out Reset Selection bits
   977                           ;	BOREN = OFF, BOR disabled
   978                           ;	Internal External Switchover bit
   979                           ;	IESO = OFF, Internal/External Switchover mode is disabled
   980                           ;	Fail-Safe Clock Monitor Enabled bit
   981                           ;	FCMEN = OFF, Fail-Safe Clock Monitor is disabled
   982                           ;	Low Voltage Programming Enable bit
   983                           ;	LVP = OFF, RB3 pin has digital I/O, HV on MCLR must be used for programming
   984                           ;	In-Circuit Debugger Mode bit
   985                           ;	DEBUG = 0x1, unprogrammed default
   986  2007                     	org	8199
   987  2007  20D4               	dw	8404
   988                           
   989                           ;Config register CONFIG2 @ 0x2008
   990                           ;	Brown-out Reset Selection bit
   991                           ;	BOR4V = BOR40V, Brown-out Reset set to 4.0V
   992                           ;	Flash Program Memory Self Write Enable bits
   993                           ;	WRT = OFF, Write protection off
   994  2008                     	org	8200
   995  2008  3FFF               	dw	16383

Data Sizes:
    Strings     0
    Constant    0
    Data        0
    BSS         2
    Persistent  0
    Stack       0

Auto Spaces:
    Space          Size  Autos    Used
    COMMON           14      6       8
    BANK0            80      0       0
    BANK1            80      0       0
    BANK3            96      0       0
    BANK2            96      0       0

Pointer List with Targets:

    None.

Critical Paths under _main in COMMON

    _main->_setup

Critical Paths under _isr in COMMON

    _isr->_write_EEPROM

Critical Paths under _main in BANK0

    None.

Critical Paths under _isr in BANK0

    None.

Critical Paths under _main in BANK1

    None.

Critical Paths under _isr in BANK1

    None.

Critical Paths under _main in BANK3

    None.

Critical Paths under _isr in BANK3

    None.

Critical Paths under _main in BANK2

    None.

Critical Paths under _isr in BANK2

    None.

Call Graph Tables:

 ---------------------------------------------------------------------------------
 (Depth) Function   	        Calls       Base Space   Used Autos Params    Refs
 ---------------------------------------------------------------------------------
 (0) _main                                                 0     0      0       0
                              _setup
 ---------------------------------------------------------------------------------
 (1) _setup                                                1     1      0       0
                                              5 COMMON     1     1      0
 ---------------------------------------------------------------------------------
 Estimated maximum stack depth 1
 ---------------------------------------------------------------------------------
 (Depth) Function   	        Calls       Base Space   Used Autos Params    Refs
 ---------------------------------------------------------------------------------
 (2) _isr                                                  3     3      0     135
                                              2 COMMON     3     3      0
                        _read_EEPROM
                       _write_EEPROM
 ---------------------------------------------------------------------------------
 (3) _write_EEPROM                                         2     1      1     120
                                              0 COMMON     2     1      1
 ---------------------------------------------------------------------------------
 (3) _read_EEPROM                                          1     1      0      15
                                              0 COMMON     1     1      0
 ---------------------------------------------------------------------------------
 Estimated maximum stack depth 3
 ---------------------------------------------------------------------------------

 Call Graph Graphs:

 _main (ROOT)
   _setup

 _isr (ROOT)
   _read_EEPROM
   _write_EEPROM

 Address spaces:
Name               Size   Autos  Total    Cost      Usage
BITCOMMON            E      0       0       0        0.0%
EEDATA             100      0       0       0        0.0%
NULL                 0      0       0       0        0.0%
CODE                 0      0       0       0        0.0%
COMMON               E      6       8       1       57.1%
BITSFR0              0      0       0       1        0.0%
SFR0                 0      0       0       1        0.0%
BITSFR1              0      0       0       2        0.0%
SFR1                 0      0       0       2        0.0%
STACK                0      0       0       2        0.0%
ABS                  0      0       8       3        0.0%
BITBANK0            50      0       0       4        0.0%
BITSFR3              0      0       0       4        0.0%
SFR3                 0      0       0       4        0.0%
BANK0               50      0       0       5        0.0%
BITSFR2              0      0       0       5        0.0%
SFR2                 0      0       0       5        0.0%
BITBANK1            50      0       0       6        0.0%
BANK1               50      0       0       7        0.0%
BITBANK3            60      0       0       8        0.0%
BANK3               60      0       0       9        0.0%
BITBANK2            60      0       0      10        0.0%
BANK2               60      0       0      11        0.0%
DATA                 0      0       8      12        0.0%


Microchip Technology PIC Macro Assembler V2.35 build 20211206165544 
Symbol Table                                                                                   Wed May 18 00:20:31 2022

                     l88 00B3                       u80 00BF                       u81 00BE  
                     u90 00C5                       u91 00C4                      l710 0065  
                    l720 0073                      l712 0069                      l730 0080  
                    l722 0076                      l714 006A                      l810 00C5  
                    l740 008D                      l732 0083                      l724 0079  
                    l716 0070                      l804 00B4                      l750 0097  
                    l742 008E                      l734 0086                      l726 007A  
                    l718 0071                      l806 00B9                      l760 00A6  
                    l752 009B                      l744 008F                      l736 0089  
                    l728 007D                      l808 00BF                      l770 00B1  
                    l762 00A9                      l754 009E                      l746 0093  
                    l738 008C                      l772 00B2                      l764 00AC  
                    l756 00A1                      l748 0096                      l766 00AD  
                    l758 00A5                      l768 00B0                      u177 00A3  
                    _isr 0015                     ?_isr 0070                     i1l70 003D  
                   i1l91 00EB                     i1l75 005E                     i1l68 0026  
                   i1l94 00DE                     _main 00B4                     btemp 007E  
                   start 000C             ?_read_EEPROM 0070                    ??_isr 0072  
                  ?_main 0070                    _EEADR 010D                    _EEDAT 010C  
                  _ANSEL 0188                    i1l820 00DA                    i1l812 00CB  
                  i1l822 00DB                    i1l814 00D1                    i1l830 0019  
                  i1l824 00DC                    i1l816 00D4                    i1l840 0032  
                  i1l832 001F                    i1l690 00E7                    i1l826 00DD  
                  i1l818 00D5                    i1l850 0052                    i1l842 0033  
                  i1l834 0023                    i1l852 005B                    i1l844 0041  
                  i1l836 002A                    i1l828 0015                    i1l686 00E0  
                  i1l854 005D                    i1l838 0030                    i1l846 004B  
                  i1l688 00E4                    i1l848 004C                    u10_20 0019  
                  u10_21 0018                    u11_20 001F                    u11_21 001E  
                  u12_20 002A                    u12_21 0029                    u13_20 0030  
                  u13_21 002F                    u14_20 0041                    u14_21 0040  
                  u15_20 0052                    u15_21 0051                    u16_20 005B  
                  u16_21 005A                    _PORTA 0005                    _PORTB 0006  
                  _PORTC 0007                    _PORTD 0008                    _TRISA 0085  
                  _TRISC 0087                    _TRISD 0088                    _setup 0065  
                  pclath 000A                    status 0003                    wtemp0 007E  
        __initialization 000F             __end_of_main 00CA                   ??_main 0076  
           _write_EEPROM 00CA                   _ADRESH 001E                   _EECON2 018D  
                 ?_setup 0070                   _ANSELH 0189                   saved_w 007E  
__end_of__initialization 0011           __pcstackCOMMON 0070            __end_of_setup 00B4  
     read_EEPROM@address 0070           _OPTION_REGbits 0081         write_EEPROM@data 0070  
                ??_setup 0075               __pmaintext 00B4               __pintentry 0004  
                __ptext1 0065                  __ptext2 0015                  __ptext3 00CA  
                __ptext4 00DF     end_of_initialization 0011      write_EEPROM@address 0071  
              _PORTAbits 0005                _PORTBbits 0006                _TRISBbits 0086  
    start_initialization 000F              __end_of_isr 0065              _bandera_off 0076  
          ??_read_EEPROM 0070              __pbssCOMMON 0076                ___latbits 0002  
    __end_of_read_EEPROM 00EC            ?_write_EEPROM 0070        interrupt_function 0004  
               _IOCBbits 0096                 _PIE1bits 008C                 _PIR1bits 000C  
             _ADCON0bits 001F               _ADCON1bits 009F           ??_write_EEPROM 0071  
               _WPUBbits 0095               _EECON1bits 018C              _read_EEPROM 00DF  
             _INTCONbits 000B                 intlevel1 0000     __end_of_write_EEPROM 00DF  
             _OSCCONbits 008F  
